; ModuleID = 'source-C-CXX/46/4732.c'
source_filename = "source-C-CXX/46/4732.c"
target datalayout = "e-m:e-p270:32:32-p271:32:32-p272:64:64-i64:64-f80:128-n8:16:32:64-S128"
target triple = "x86_64-pc-linux-gnu"

@.str = private unnamed_addr constant [3 x i8] c"%d\00", align 1
@.str.1 = private unnamed_addr constant [4 x i8] c"%d \00", align 1

; Function Attrs: nofree nounwind sspstrong uwtable
define dso_local i32 @main() local_unnamed_addr #0 {
  %1 = alloca i32, align 4
  %2 = alloca [100 x i32], align 16
  %3 = bitcast [100 x i32]* %2 to i8*
  %4 = bitcast i32* %1 to i8*
  call void @llvm.lifetime.start.p0i8(i64 4, i8* nonnull %4) #4
  call void @llvm.lifetime.start.p0i8(i64 400, i8* nonnull %3) #4
  call void @llvm.memset.p0i8.i64(i8* noundef nonnull align 16 dereferenceable(400) %3, i8 0, i64 400, i1 false)
  %5 = call i32 (i8*, ...) @__isoc99_scanf(i8* getelementptr inbounds ([3 x i8], [3 x i8]* @.str, i64 0, i64 0), i32* nonnull %1)
  %6 = load i32, i32* %1, align 4, !tbaa !5
  %7 = icmp slt i32 %6, 1
  br i1 %7, label %33, label %15

8:                                                ; preds = %15
  %9 = getelementptr inbounds [100 x i32], [100 x i32]* %2, i64 0, i64 1
  %10 = icmp sgt i32 %20, 0
  br i1 %10, label %11, label %33

11:                                               ; preds = %8
  %12 = icmp eq i32 %20, 1
  br i1 %12, label %30, label %13

13:                                               ; preds = %11
  %14 = zext i32 %20 to i64
  br label %23

15:                                               ; preds = %0, %15
  %16 = phi i64 [ %19, %15 ], [ 1, %0 ]
  %17 = getelementptr inbounds [100 x i32], [100 x i32]* %2, i64 0, i64 %16
  %18 = call i32 (i8*, ...) @__isoc99_scanf(i8* getelementptr inbounds ([3 x i8], [3 x i8]* @.str, i64 0, i64 0), i32* nonnull %17)
  %19 = add nuw nsw i64 %16, 1
  %20 = load i32, i32* %1, align 4, !tbaa !5
  %21 = sext i32 %20 to i64
  %22 = icmp slt i64 %16, %21
  br i1 %22, label %15, label %8, !llvm.loop !9

23:                                               ; preds = %13, %23
  %24 = phi i64 [ %14, %13 ], [ %28, %23 ]
  %25 = getelementptr inbounds [100 x i32], [100 x i32]* %2, i64 0, i64 %24
  %26 = load i32, i32* %25, align 4, !tbaa !5
  %27 = call i32 (i8*, ...) @printf(i8* nonnull dereferenceable(1) getelementptr inbounds ([4 x i8], [4 x i8]* @.str.1, i64 0, i64 0), i32 %26)
  %28 = add nsw i64 %24, -1
  %29 = icmp eq i64 %28, 1
  br i1 %29, label %30, label %23

30:                                               ; preds = %23, %11
  %31 = load i32, i32* %9, align 4, !tbaa !5
  %32 = call i32 (i8*, ...) @printf(i8* nonnull dereferenceable(1) getelementptr inbounds ([3 x i8], [3 x i8]* @.str, i64 0, i64 0), i32 %31)
  br label %33

33:                                               ; preds = %0, %30, %8
  call void @llvm.lifetime.end.p0i8(i64 400, i8* nonnull %3) #4
  call void @llvm.lifetime.end.p0i8(i64 4, i8* nonnull %4) #4
  ret i32 0
}

; Function Attrs: argmemonly mustprogress nofree nosync nounwind willreturn
declare void @llvm.lifetime.start.p0i8(i64 immarg, i8* nocapture) #1

; Function Attrs: nofree nounwind
declare noundef i32 @__isoc99_scanf(i8* nocapture noundef readonly, ...) local_unnamed_addr #2

; Function Attrs: nofree nounwind
declare noundef i32 @printf(i8* nocapture noundef readonly, ...) local_unnamed_addr #2

; Function Attrs: argmemonly mustprogress nofree nosync nounwind willreturn
declare void @llvm.lifetime.end.p0i8(i64 immarg, i8* nocapture) #1

; Function Attrs: argmemonly nofree nounwind willreturn writeonly
declare void @llvm.memset.p0i8.i64(i8* nocapture writeonly, i8, i64, i1 immarg) #3


!llvm.module.flags = !{!0, !1, !2, !3}
!llvm.ident = !{!4}

!0 = !{i32 1, !"wchar_size", i32 4}
!1 = !{i32 7, !"PIC Level", i32 2}
!2 = !{i32 7, !"PIE Level", i32 2}
!3 = !{i32 7, !"uwtable", i32 1}
!4 = !{!"clang version 13.0.0"}
!5 = !{!6, !6, i64 0}
!6 = !{!"int", !7, i64 0}
!7 = !{!"omnipotent char", !8, i64 0}
!8 = !{!"Simple C/C++ TBAA"}
!9 = distinct !{!9, !10}
!10 = !{!"llvm.loop.mustprogress"}
